target datalayout = "e-m:e-p270:32:32-p271:32:32-p272:64:64-i64:64-i128:128-f80:128-n8:16:32:64-S128"
target triple = "x86_64-pc-linux-gnu"

%struct._value_string_ext = type { ptr, i32, i32, ptr, ptr }

@hf_h224_client_list_code = internal global i32 0, align 4
@hf_h224_extra_caps_code = internal global i32 0, align 4
@hf_h224_response_code = internal global i32 0, align 4
@hf_h224_number_of_clients = internal global i32 0, align 4
@hf_h224_ex_caps_bit = internal global i32 0, align 4
@hf_h224_encoded_characters = internal global i32 0, align 4
@hf_h224_end_octet = internal global i32 0, align 4
@ett_h224 = internal global i32 0, align 4
@h224_client_data_ext = internal global %struct._value_string_ext { ptr @_try_val_to_str_ext_init, i32 0, i32 4, ptr @h224_client_data_type, ptr @.str.132 }, align 8
@.str.131 = private unnamed_addr constant [14 x i8] c"Unknown field\00", align 1
@dissect_h224_cme_client_data.fecc_number_of_presets = internal constant [4 x ptr] [ptr @hf_h224_caps_reserved, ptr @hf_h224_brd_svs, ptr @hf_h224_number_of_presets, ptr null], align 16
@dissect_h224_cme_client_data.fecc_vrs_capabilities = internal constant [6 x ptr] [ptr @hf_h224_vs_id, ptr @hf_h224_vs_reserved_b3, ptr @hf_h224_motion_video, ptr @hf_h224_norm_res_si, ptr @hf_h224_dbl_res_si, ptr null], align 16
@dissect_h224_cme_client_data.fecc_caps_ability = internal constant [6 x ptr] [ptr @hf_h224_pan_cap, ptr @hf_h224_tilt_cap, ptr @hf_h224_zoom_cap, ptr @hf_h224_focus_cap, ptr @hf_h224_vs_reserved_b3b0, ptr null], align 16

; Function Attrs: null_pointer_is_valid sspstrong uwtable
define internal i32 @dissect_h224_cme_client_data(ptr noundef %0, ptr noundef %1, i32 noundef %2) #0 {
  %4 = alloca ptr, align 8
  %5 = alloca ptr, align 8
  %6 = alloca i32, align 4
  %7 = alloca i16, align 2
  %8 = alloca i8, align 1
  %9 = alloca i8, align 1
  %10 = alloca i8, align 1
  %11 = alloca i8, align 1
  %12 = alloca ptr, align 8
  %13 = alloca i32, align 4
  store ptr %0, ptr %4, align 8
  store ptr %1, ptr %5, align 8
  store i32 %2, ptr %6, align 4
  call void @llvm.lifetime.start.p0(i64 2, ptr %7) #3
  call void @llvm.lifetime.start.p0(i64 1, ptr %8) #3
  call void @llvm.lifetime.start.p0(i64 1, ptr %9) #3
  call void @llvm.lifetime.start.p0(i64 1, ptr %10) #3
  call void @llvm.lifetime.start.p0(i64 1, ptr %11) #3
  call void @llvm.lifetime.start.p0(i64 8, ptr %12) #3
  %14 = load ptr, ptr %5, align 8
  %15 = load ptr, ptr %4, align 8
  %16 = load i32, ptr %6, align 4
  %17 = load i32, ptr @ett_h224, align 4
  %18 = call ptr @val_to_str_ext_const(i32 noundef 0, ptr noundef @h224_client_data_ext, ptr noundef @.str.131)
  %19 = call ptr @proto_tree_add_subtree(ptr noundef %14, ptr noundef %15, i32 noundef %16, i32 noundef -1, i32 noundef %17, ptr noundef null, ptr noundef %18)
  store ptr %19, ptr %12, align 8
  %20 = load ptr, ptr %4, align 8
  %21 = load i32, ptr %6, align 4
  %22 = call zeroext i16 @tvb_get_uint16(ptr noundef %20, i32 noundef %21, i32 noundef 0)
  store i16 %22, ptr %7, align 2
  %23 = load i16, ptr %7, align 2
  %24 = zext i16 %23 to i32
  switch i32 %24, label %210 [
    i32 256, label %25
    i32 511, label %77
    i32 512, label %92
    i32 767, label %182
  ]

25:                                               ; preds = %3
  %26 = load ptr, ptr %12, align 8
  %27 = load i32, ptr @hf_h224_client_list_code, align 4
  %28 = load ptr, ptr %4, align 8
  %29 = load i32, ptr %6, align 4
  %30 = call ptr @proto_tree_add_item(ptr noundef %26, i32 noundef %27, ptr noundef %28, i32 noundef %29, i32 noundef 1, i32 noundef 0)
  %31 = load i32, ptr %6, align 4
  %32 = add i32 %31, 1
  store i32 %32, ptr %6, align 4
  %33 = load ptr, ptr %12, align 8
  %34 = load i32, ptr @hf_h224_response_code, align 4
  %35 = load ptr, ptr %4, align 8
  %36 = load i32, ptr %6, align 4
  %37 = call ptr @proto_tree_add_item(ptr noundef %33, i32 noundef %34, ptr noundef %35, i32 noundef %36, i32 noundef 1, i32 noundef 0)
  %38 = load i32, ptr %6, align 4
  %39 = add i32 %38, 1
  store i32 %39, ptr %6, align 4
  %40 = load ptr, ptr %12, align 8
  %41 = load i32, ptr @hf_h224_number_of_clients, align 4
  %42 = load ptr, ptr %4, align 8
  %43 = load i32, ptr %6, align 4
  %44 = call ptr @proto_tree_add_item(ptr noundef %40, i32 noundef %41, ptr noundef %42, i32 noundef %43, i32 noundef 1, i32 noundef 0)
  %45 = load ptr, ptr %4, align 8
  %46 = load i32, ptr %6, align 4
  %47 = call zeroext i8 @tvb_get_uint8(ptr noundef %45, i32 noundef %46)
  store i8 %47, ptr %8, align 1
  %48 = load i32, ptr %6, align 4
  %49 = add i32 %48, 1
  store i32 %49, ptr %6, align 4
  %50 = load ptr, ptr %12, align 8
  %51 = load i32, ptr @hf_h224_ex_caps_bit, align 4
  %52 = load ptr, ptr %4, align 8
  %53 = load i32, ptr %6, align 4
  %54 = call ptr @proto_tree_add_item(ptr noundef %50, i32 noundef %51, ptr noundef %52, i32 noundef %53, i32 noundef 1, i32 noundef 0)
  call void @llvm.lifetime.start.p0(i64 4, ptr %13) #3
  store i32 0, ptr %13, align 4
  br label %55

55:                                               ; preds = %73, %25
  %56 = load i32, ptr %13, align 4
  %57 = load i8, ptr %8, align 1
  %58 = zext i8 %57 to i32
  %59 = icmp slt i32 %56, %58
  br i1 %59, label %61, label %60

60:                                               ; preds = %55
  call void @llvm.lifetime.end.p0(i64 4, ptr %13) #3
  br label %76

61:                                               ; preds = %55
  %62 = load ptr, ptr %4, align 8
  %63 = load i32, ptr %6, align 4
  %64 = call zeroext i8 @tvb_get_uint8(ptr noundef %62, i32 noundef %63)
  store i8 %64, ptr %9, align 1
  %65 = load ptr, ptr %4, align 8
  %66 = load ptr, ptr %12, align 8
  %67 = load i32, ptr %6, align 4
  %68 = load i8, ptr %9, align 1
  %69 = zext i8 %68 to i32
  %70 = and i32 %69, 127
  %71 = trunc i32 %70 to i8
  %72 = call i32 @dissect_h224_standard_clients_ids(ptr noundef %65, ptr noundef %66, i32 noundef %67, i8 noundef zeroext %71)
  store i32 %72, ptr %6, align 4
  br label %73

73:                                               ; preds = %61
  %74 = load i32, ptr %13, align 4
  %75 = add i32 %74, 1
  store i32 %75, ptr %13, align 4
  br label %55, !llvm.loop !8

76:                                               ; preds = %60
  br label %211

77:                                               ; preds = %3
  %78 = load ptr, ptr %12, align 8
  %79 = load i32, ptr @hf_h224_client_list_code, align 4
  %80 = load ptr, ptr %4, align 8
  %81 = load i32, ptr %6, align 4
  %82 = call ptr @proto_tree_add_item(ptr noundef %78, i32 noundef %79, ptr noundef %80, i32 noundef %81, i32 noundef 1, i32 noundef 0)
  %83 = load i32, ptr %6, align 4
  %84 = add i32 %83, 1
  store i32 %84, ptr %6, align 4
  %85 = load ptr, ptr %12, align 8
  %86 = load i32, ptr @hf_h224_response_code, align 4
  %87 = load ptr, ptr %4, align 8
  %88 = load i32, ptr %6, align 4
  %89 = call ptr @proto_tree_add_item(ptr noundef %85, i32 noundef %86, ptr noundef %87, i32 noundef %88, i32 noundef 1, i32 noundef 0)
  %90 = load i32, ptr %6, align 4
  %91 = add i32 %90, 1
  store i32 %91, ptr %6, align 4
  br label %211

92:                                               ; preds = %3
  %93 = load ptr, ptr %12, align 8
  %94 = load i32, ptr @hf_h224_extra_caps_code, align 4
  %95 = load ptr, ptr %4, align 8
  %96 = load i32, ptr %6, align 4
  %97 = call ptr @proto_tree_add_item(ptr noundef %93, i32 noundef %94, ptr noundef %95, i32 noundef %96, i32 noundef 1, i32 noundef 0)
  %98 = load i32, ptr %6, align 4
  %99 = add i32 %98, 1
  store i32 %99, ptr %6, align 4
  %100 = load ptr, ptr %12, align 8
  %101 = load i32, ptr @hf_h224_response_code, align 4
  %102 = load ptr, ptr %4, align 8
  %103 = load i32, ptr %6, align 4
  %104 = call ptr @proto_tree_add_item(ptr noundef %100, i32 noundef %101, ptr noundef %102, i32 noundef %103, i32 noundef 1, i32 noundef 0)
  %105 = load i32, ptr %6, align 4
  %106 = add i32 %105, 1
  store i32 %106, ptr %6, align 4
  %107 = load ptr, ptr %12, align 8
  %108 = load i32, ptr @hf_h224_ex_caps_bit, align 4
  %109 = load ptr, ptr %4, align 8
  %110 = load i32, ptr %6, align 4
  %111 = call ptr @proto_tree_add_item(ptr noundef %107, i32 noundef %108, ptr noundef %109, i32 noundef %110, i32 noundef 1, i32 noundef 0)
  %112 = load ptr, ptr %4, align 8
  %113 = load i32, ptr %6, align 4
  %114 = call zeroext i8 @tvb_get_uint8(ptr noundef %112, i32 noundef %113)
  store i8 %114, ptr %9, align 1
  %115 = load ptr, ptr %4, align 8
  %116 = load ptr, ptr %12, align 8
  %117 = load i32, ptr %6, align 4
  %118 = load i8, ptr %9, align 1
  %119 = call i32 @dissect_h224_standard_clients_ids(ptr noundef %115, ptr noundef %116, i32 noundef %117, i8 noundef zeroext %118)
  store i32 %119, ptr %6, align 4
  %120 = load i8, ptr %9, align 1
  %121 = zext i8 %120 to i32
  %122 = and i32 %121, 127
  %123 = icmp eq i32 %122, 1
  br i1 %123, label %124, label %181

124:                                              ; preds = %92
  %125 = load ptr, ptr %12, align 8
  %126 = load ptr, ptr %4, align 8
  %127 = load i32, ptr %6, align 4
  call void @proto_tree_add_bitmask_list(ptr noundef %125, ptr noundef %126, i32 noundef %127, i32 noundef 1, ptr noundef @dissect_h224_cme_client_data.fecc_number_of_presets, i32 noundef 0)
  %128 = load i32, ptr %6, align 4
  %129 = add i32 %128, 1
  store i32 %129, ptr %6, align 4
  %130 = load ptr, ptr %4, align 8
  %131 = load i32, ptr %6, align 4
  %132 = call zeroext i8 @tvb_get_uint8(ptr noundef %130, i32 noundef %131)
  store i8 %132, ptr %9, align 1
  %133 = load ptr, ptr %12, align 8
  %134 = load ptr, ptr %4, align 8
  %135 = load i32, ptr %6, align 4
  call void @proto_tree_add_bitmask_list(ptr noundef %133, ptr noundef %134, i32 noundef %135, i32 noundef 1, ptr noundef @dissect_h224_cme_client_data.fecc_vrs_capabilities, i32 noundef 0)
  %136 = load i32, ptr %6, align 4
  %137 = add i32 %136, 1
  store i32 %137, ptr %6, align 4
  %138 = load i8, ptr %9, align 1
  %139 = zext i8 %138 to i32
  %140 = and i32 %139, 240
  %141 = ashr i32 %140, 4
  %142 = trunc i32 %141 to i8
  store i8 %142, ptr %10, align 1
  %143 = load i8, ptr %10, align 1
  %144 = zext i8 %143 to i32
  %145 = icmp sgt i32 %144, 5
  br i1 %145, label %146, label %175

146:                                              ; preds = %124
  %147 = load ptr, ptr %4, align 8
  %148 = load i32, ptr %6, align 4
  %149 = call i32 @tvb_find_uint8(ptr noundef %147, i32 noundef %148, i32 noundef 16, i8 noundef zeroext 0)
  %150 = trunc i32 %149 to i8
  store i8 %150, ptr %11, align 1
  %151 = load i8, ptr %11, align 1
  %152 = zext i8 %151 to i32
  %153 = load i32, ptr %6, align 4
  %154 = icmp ugt i32 %152, %153
  br i1 %154, label %155, label %174

155:                                              ; preds = %146
  %156 = load ptr, ptr %12, align 8
  %157 = load i32, ptr @hf_h224_encoded_characters, align 4
  %158 = load ptr, ptr %4, align 8
  %159 = load i32, ptr %6, align 4
  %160 = load i8, ptr %11, align 1
  %161 = zext i8 %160 to i32
  %162 = load i32, ptr %6, align 4
  %163 = sub i32 %161, %162
  %164 = call ptr @proto_tree_add_item(ptr noundef %156, i32 noundef %157, ptr noundef %158, i32 noundef %159, i32 noundef %163, i32 noundef 0)
  %165 = load i8, ptr %11, align 1
  %166 = zext i8 %165 to i32
  store i32 %166, ptr %6, align 4
  %167 = load ptr, ptr %12, align 8
  %168 = load i32, ptr @hf_h224_end_octet, align 4
  %169 = load ptr, ptr %4, align 8
  %170 = load i32, ptr %6, align 4
  %171 = call ptr @proto_tree_add_item(ptr noundef %167, i32 noundef %168, ptr noundef %169, i32 noundef %170, i32 noundef 1, i32 noundef 0)
  %172 = load i32, ptr %6, align 4
  %173 = add i32 %172, 1
  store i32 %173, ptr %6, align 4
  br label %174

174:                                              ; preds = %155, %146
  br label %175

175:                                              ; preds = %174, %124
  %176 = load ptr, ptr %12, align 8
  %177 = load ptr, ptr %4, align 8
  %178 = load i32, ptr %6, align 4
  call void @proto_tree_add_bitmask_list(ptr noundef %176, ptr noundef %177, i32 noundef %178, i32 noundef 1, ptr noundef @dissect_h224_cme_client_data.fecc_caps_ability, i32 noundef 0)
  %179 = load i32, ptr %6, align 4
  %180 = add i32 %179, 1
  store i32 %180, ptr %6, align 4
  br label %181

181:                                              ; preds = %175, %92
  br label %211

182:                                              ; preds = %3
  %183 = load ptr, ptr %12, align 8
  %184 = load i32, ptr @hf_h224_extra_caps_code, align 4
  %185 = load ptr, ptr %4, align 8
  %186 = load i32, ptr %6, align 4
  %187 = call ptr @proto_tree_add_item(ptr noundef %183, i32 noundef %184, ptr noundef %185, i32 noundef %186, i32 noundef 1, i32 noundef 0)
  %188 = load i32, ptr %6, align 4
  %189 = add i32 %188, 1
  store i32 %189, ptr %6, align 4
  %190 = load ptr, ptr %12, align 8
  %191 = load i32, ptr @hf_h224_response_code, align 4
  %192 = load ptr, ptr %4, align 8
  %193 = load i32, ptr %6, align 4
  %194 = call ptr @proto_tree_add_item(ptr noundef %190, i32 noundef %191, ptr noundef %192, i32 noundef %193, i32 noundef 1, i32 noundef 0)
  %195 = load i32, ptr %6, align 4
  %196 = add i32 %195, 1
  store i32 %196, ptr %6, align 4
  %197 = load ptr, ptr %12, align 8
  %198 = load i32, ptr @hf_h224_ex_caps_bit, align 4
  %199 = load ptr, ptr %4, align 8
  %200 = load i32, ptr %6, align 4
  %201 = call ptr @proto_tree_add_item(ptr noundef %197, i32 noundef %198, ptr noundef %199, i32 noundef %200, i32 noundef 1, i32 noundef 0)
  %202 = load ptr, ptr %4, align 8
  %203 = load i32, ptr %6, align 4
  %204 = call zeroext i8 @tvb_get_uint8(ptr noundef %202, i32 noundef %203)
  store i8 %204, ptr %9, align 1
  %205 = load ptr, ptr %4, align 8
  %206 = load ptr, ptr %12, align 8
  %207 = load i32, ptr %6, align 4
  %208 = load i8, ptr %9, align 1
  %209 = call i32 @dissect_h224_standard_clients_ids(ptr noundef %205, ptr noundef %206, i32 noundef %207, i8 noundef zeroext %208)
  store i32 %209, ptr %6, align 4
  br label %211

210:                                              ; preds = %3
  br label %211

211:                                              ; preds = %210, %182, %181, %77, %76
  %212 = load i32, ptr %6, align 4
  call void @llvm.lifetime.end.p0(i64 8, ptr %12) #3
  call void @llvm.lifetime.end.p0(i64 1, ptr %11) #3
  call void @llvm.lifetime.end.p0(i64 1, ptr %10) #3
  call void @llvm.lifetime.end.p0(i64 1, ptr %9) #3
  call void @llvm.lifetime.end.p0(i64 1, ptr %8) #3
  call void @llvm.lifetime.end.p0(i64 2, ptr %7) #3
  ret i32 %212
}