; Function Attrs: null_pointer_is_valid sspstrong uwtable
define internal noundef i32 @dissect_h224_cme_client_data(ptr noundef %0, ptr noundef %1, i32 noundef %2) #0 {
  %4 = load i32, ptr @ett_h224, align 4
  %5 = tail call ptr @val_to_str_ext_const(i32 noundef 0, ptr noundef nonnull @h224_client_data_ext, ptr noundef nonnull @.str.131)
  %6 = tail call ptr @proto_tree_add_subtree(ptr noundef %1, ptr noundef %0, i32 noundef %2, i32 noundef -1, i32 noundef %4, ptr noundef null, ptr noundef %5)
  %7 = tail call zeroext i16 @tvb_get_uint16(ptr noundef %0, i32 noundef %2, i32 noundef 0)
  switch i16 %7, label %.loopexit [
    i16 256, label %8
    i16 511, label %26
    i16 512, label %33
    i16 767, label %64
  ]

8:                                                ; preds = %3
  %9 = load i32, ptr @hf_h224_client_list_code, align 4
  %10 = tail call ptr @proto_tree_add_item(ptr noundef %6, i32 noundef %9, ptr noundef %0, i32 noundef %2, i32 noundef 1, i32 noundef 0)
  %11 = add i32 %2, 1
  %12 = load i32, ptr @hf_h224_response_code, align 4
  %13 = tail call ptr @proto_tree_add_item(ptr noundef %6, i32 noundef %12, ptr noundef %0, i32 noundef %11, i32 noundef 1, i32 noundef 0)
  %14 = add i32 %2, 2
  %15 = load i32, ptr @hf_h224_number_of_clients, align 4
  %16 = tail call ptr @proto_tree_add_item(ptr noundef %6, i32 noundef %15, ptr noundef %0, i32 noundef %14, i32 noundef 1, i32 noundef 0)
  %17 = tail call zeroext i8 @tvb_get_uint8(ptr noundef %0, i32 noundef %14)
  %18 = add i32 %2, 3
  %19 = load i32, ptr @hf_h224_ex_caps_bit, align 4
  %20 = tail call ptr @proto_tree_add_item(ptr noundef %6, i32 noundef %19, ptr noundef %0, i32 noundef %18, i32 noundef 1, i32 noundef 0)
  %21 = zext i8 %17 to i32
  %.not = icmp eq i8 %17, 0
  br i1 %.not, label %.loopexit, label %.lr.ph

.lr.ph:                                           ; preds = %8, %.lr.ph
  %.0110 = phi i32 [ %25, %.lr.ph ], [ 0, %8 ]
  %.0105109 = phi i32 [ %24, %.lr.ph ], [ %18, %8 ]
  %22 = tail call zeroext i8 @tvb_get_uint8(ptr noundef %0, i32 noundef %.0105109)
  %23 = and i8 %22, 127
  %24 = tail call fastcc i32 @dissect_h224_standard_clients_ids(ptr noundef %0, ptr noundef %6, i32 noundef %.0105109, i8 noundef zeroext %23)
  %25 = add nuw nsw i32 %.0110, 1
  %exitcond.not = icmp eq i32 %25, %21
  br i1 %exitcond.not, label %.loopexit, label %.lr.ph, !llvm.loop !8

26:                                               ; preds = %3
  %27 = load i32, ptr @hf_h224_client_list_code, align 4
  %28 = tail call ptr @proto_tree_add_item(ptr noundef %6, i32 noundef %27, ptr noundef %0, i32 noundef %2, i32 noundef 1, i32 noundef 0)
  %29 = add i32 %2, 1
  %30 = load i32, ptr @hf_h224_response_code, align 4
  %31 = tail call ptr @proto_tree_add_item(ptr noundef %6, i32 noundef %30, ptr noundef %0, i32 noundef %29, i32 noundef 1, i32 noundef 0)
  %32 = add i32 %2, 2
  br label %.loopexit

33:                                               ; preds = %3
  %34 = load i32, ptr @hf_h224_extra_caps_code, align 4
  %35 = tail call ptr @proto_tree_add_item(ptr noundef %6, i32 noundef %34, ptr noundef %0, i32 noundef %2, i32 noundef 1, i32 noundef 0)
  %36 = add i32 %2, 1
  %37 = load i32, ptr @hf_h224_response_code, align 4
  %38 = tail call ptr @proto_tree_add_item(ptr noundef %6, i32 noundef %37, ptr noundef %0, i32 noundef %36, i32 noundef 1, i32 noundef 0)
  %39 = add i32 %2, 2
  %40 = load i32, ptr @hf_h224_ex_caps_bit, align 4
  %41 = tail call ptr @proto_tree_add_item(ptr noundef %6, i32 noundef %40, ptr noundef %0, i32 noundef %39, i32 noundef 1, i32 noundef 0)
  %42 = tail call zeroext i8 @tvb_get_uint8(ptr noundef %0, i32 noundef %39)
  %43 = tail call fastcc i32 @dissect_h224_standard_clients_ids(ptr noundef %0, ptr noundef %6, i32 noundef %39, i8 noundef zeroext %42)
  %44 = and i8 %42, 127
  %45 = icmp eq i8 %44, 1
  br i1 %45, label %46, label %.loopexit

46:                                               ; preds = %33
  tail call void @proto_tree_add_bitmask_list(ptr noundef %6, ptr noundef %0, i32 noundef %43, i32 noundef 1, ptr noundef nonnull @dissect_h224_cme_client_data.fecc_number_of_presets, i32 noundef 0)
  %47 = add i32 %43, 1
  %48 = tail call zeroext i8 @tvb_get_uint8(ptr noundef %0, i32 noundef %47)
  tail call void @proto_tree_add_bitmask_list(ptr noundef %6, ptr noundef %0, i32 noundef %47, i32 noundef 1, ptr noundef nonnull @dissect_h224_cme_client_data.fecc_vrs_capabilities, i32 noundef 0)
  %49 = add i32 %43, 2
  %50 = icmp ugt i8 %48, 95
  br i1 %50, label %51, label %62

51:                                               ; preds = %46
  %52 = tail call i32 @tvb_find_uint8(ptr noundef %0, i32 noundef %49, i32 noundef 16, i8 noundef zeroext 0)
  %53 = and i32 %52, 255
  %54 = icmp ugt i32 %53, %49
  br i1 %54, label %55, label %62

55:                                               ; preds = %51
  %56 = load i32, ptr @hf_h224_encoded_characters, align 4
  %57 = sub nuw nsw i32 %53, %49
  %58 = tail call ptr @proto_tree_add_item(ptr noundef %6, i32 noundef %56, ptr noundef %0, i32 noundef %49, i32 noundef %57, i32 noundef 0)
  %59 = load i32, ptr @hf_h224_end_octet, align 4
  %60 = tail call ptr @proto_tree_add_item(ptr noundef %6, i32 noundef %59, ptr noundef %0, i32 noundef %53, i32 noundef 1, i32 noundef 0)
  %61 = add nuw nsw i32 %53, 1
  br label %62

62:                                               ; preds = %51, %55, %46
  %.2 = phi i32 [ %61, %55 ], [ %49, %51 ], [ %49, %46 ]
  tail call void @proto_tree_add_bitmask_list(ptr noundef %6, ptr noundef %0, i32 noundef %.2, i32 noundef 1, ptr noundef nonnull @dissect_h224_cme_client_data.fecc_caps_ability, i32 noundef 0)
  %63 = add i32 %.2, 1
  br label %.loopexit

64:                                               ; preds = %3
  %65 = load i32, ptr @hf_h224_extra_caps_code, align 4
  %66 = tail call ptr @proto_tree_add_item(ptr noundef %6, i32 noundef %65, ptr noundef %0, i32 noundef %2, i32 noundef 1, i32 noundef 0)
  %67 = add i32 %2, 1
  %68 = load i32, ptr @hf_h224_response_code, align 4
  %69 = tail call ptr @proto_tree_add_item(ptr noundef %6, i32 noundef %68, ptr noundef %0, i32 noundef %67, i32 noundef 1, i32 noundef 0)
  %70 = add i32 %2, 2
  %71 = load i32, ptr @hf_h224_ex_caps_bit, align 4
  %72 = tail call ptr @proto_tree_add_item(ptr noundef %6, i32 noundef %71, ptr noundef %0, i32 noundef %70, i32 noundef 1, i32 noundef 0)
  %73 = tail call zeroext i8 @tvb_get_uint8(ptr noundef %0, i32 noundef %70)
  %74 = tail call fastcc i32 @dissect_h224_standard_clients_ids(ptr noundef %0, ptr noundef %6, i32 noundef %70, i8 noundef zeroext %73)
  br label %.loopexit

.loopexit:                                        ; preds = %.lr.ph, %8, %3, %33, %62, %64, %26
  %.1 = phi i32 [ %2, %3 ], [ %74, %64 ], [ %63, %62 ], [ %43, %33 ], [ %32, %26 ], [ %18, %8 ], [ %24, %.lr.ph ]
  ret i32 %.1
}